; ModuleID = '20/1152.c'
source_filename = "20/1152.c"
target datalayout = "e-m:e-p270:32:32-p271:32:32-p272:64:64-i64:64-f80:128-n8:16:32:64-S128"
target triple = "x86_64-pc-linux-gnu"

@.str = private unnamed_addr constant [5 x i8] c"%s%s\00", align 1
@.str.1 = private unnamed_addr constant [2 x i8] c"\0A\00", align 1

; Function Attrs: noinline nounwind uwtable
define dso_local i32 @main() #0 {
  %1 = alloca i32, align 4
  %2 = alloca i32, align 4
  %3 = alloca i32, align 4
  %4 = alloca i32, align 4
  %5 = alloca [100 x i8], align 16
  %6 = alloca [100 x i8], align 16
  store i32 0, i32* %1, align 4
  br label %7

7:                                                ; preds = %75, %0
  %8 = call i32 (i8*, ...) @__isoc99_scanf(i8* getelementptr inbounds ([5 x i8], [5 x i8]* @.str, i64 0, i64 0), [100 x i8]* %5, [100 x i8]* %6)
  %9 = icmp ne i32 %8, -1
  br i1 %9, label %10, label %77

10:                                               ; preds = %7
  store i32 0, i32* %3, align 4
  store i32 0, i32* %4, align 4
  store i32 0, i32* %2, align 4
  br label %11

11:                                               ; preds = %33, %10
  %12 = load i32, i32* %2, align 4
  %13 = sext i32 %12 to i64
  %14 = getelementptr inbounds [100 x i8], [100 x i8]* %5, i64 0, i64 0
  %15 = call i64 @strlen(i8* %14) #3
  %16 = icmp ult i64 %13, %15
  br i1 %16, label %17, label %36

17:                                               ; preds = %11
  %18 = load i32, i32* %2, align 4
  %19 = sext i32 %18 to i64
  %20 = getelementptr inbounds [100 x i8], [100 x i8]* %5, i64 0, i64 %19
  %21 = load i8, i8* %20, align 1
  %22 = sext i8 %21 to i32
  %23 = load i32, i32* %3, align 4
  %24 = icmp sgt i32 %22, %23
  br i1 %24, label %25, label %32

25:                                               ; preds = %17
  %26 = load i32, i32* %2, align 4
  %27 = sext i32 %26 to i64
  %28 = getelementptr inbounds [100 x i8], [100 x i8]* %5, i64 0, i64 %27
  %29 = load i8, i8* %28, align 1
  %30 = sext i8 %29 to i32
  store i32 %30, i32* %3, align 4
  %31 = load i32, i32* %2, align 4
  store i32 %31, i32* %4, align 4
  br label %32

32:                                               ; preds = %25, %17
  br label %33

33:                                               ; preds = %32
  %34 = load i32, i32* %2, align 4
  %35 = add nsw i32 %34, 1
  store i32 %35, i32* %2, align 4
  br label %11

36:                                               ; preds = %11
  store i32 0, i32* %2, align 4
  br label %37

37:                                               ; preds = %72, %36
  %38 = load i32, i32* %2, align 4
  %39 = sext i32 %38 to i64
  %40 = getelementptr inbounds [100 x i8], [100 x i8]* %5, i64 0, i64 0
  %41 = call i64 @strlen(i8* %40) #3
  %42 = icmp ult i64 %39, %41
  br i1 %42, label %43, label %75

43:                                               ; preds = %37
  %44 = load i32, i32* %2, align 4
  %45 = sext i32 %44 to i64
  %46 = getelementptr inbounds [100 x i8], [100 x i8]* %5, i64 0, i64 %45
  %47 = load i8, i8* %46, align 1
  %48 = sext i8 %47 to i32
  %49 = call i32 @putchar(i32 %48)
  %50 = load i32, i32* %2, align 4
  %51 = load i32, i32* %4, align 4
  %52 = icmp eq i32 %50, %51
  br i1 %52, label %53, label %71

53:                                               ; preds = %43
  store i32 0, i32* %3, align 4
  br label %54

54:                                               ; preds = %67, %53
  %55 = load i32, i32* %3, align 4
  %56 = sext i32 %55 to i64
  %57 = getelementptr inbounds [100 x i8], [100 x i8]* %6, i64 0, i64 0
  %58 = call i64 @strlen(i8* %57) #3
  %59 = icmp ult i64 %56, %58
  br i1 %59, label %60, label %70

60:                                               ; preds = %54
  %61 = load i32, i32* %3, align 4
  %62 = sext i32 %61 to i64
  %63 = getelementptr inbounds [100 x i8], [100 x i8]* %6, i64 0, i64 %62
  %64 = load i8, i8* %63, align 1
  %65 = sext i8 %64 to i32
  %66 = call i32 @putchar(i32 %65)
  br label %67

67:                                               ; preds = %60
  %68 = load i32, i32* %3, align 4
  %69 = add nsw i32 %68, 1
  store i32 %69, i32* %3, align 4
  br label %54

70:                                               ; preds = %54
  br label %71

71:                                               ; preds = %70, %43
  br label %72

72:                                               ; preds = %71
  %73 = load i32, i32* %2, align 4
  %74 = add nsw i32 %73, 1
  store i32 %74, i32* %2, align 4
  br label %37

75:                                               ; preds = %37
  %76 = call i32 (i8*, ...) @printf(i8* getelementptr inbounds ([2 x i8], [2 x i8]* @.str.1, i64 0, i64 0))
  br label %7

77:                                               ; preds = %7
  %78 = load i32, i32* %1, align 4
  ret i32 %78
}

declare dso_local i32 @__isoc99_scanf(i8*, ...) #1

; Function Attrs: nounwind readonly
declare dso_local i64 @strlen(i8*) #2

declare dso_local i32 @putchar(i32) #1

declare dso_local i32 @printf(i8*, ...) #1


!llvm.module.flags = !{!0}
!llvm.ident = !{!1}

!0 = !{i32 1, !"wchar_size", i32 4}
!1 = !{!"clang version 10.0.0-4ubuntu1 "}
